; Function Attrs: mustprogress uwtable
define hidden noundef i32 @_ZN5o3dgc11LoadBinDataERNS_6VectorIlEERKNS_12BinaryStreamERm(ptr noundef nonnull align 8 captures(none) dereferenceable(24) %0, ptr noundef nonnull readonly align 8 captures(none) dereferenceable(28) %1, ptr noundef nonnull align 8 captures(none) dereferenceable(8) %2) local_unnamed_addr #0 {
_ZNK5o3dgc12BinaryStream15ReadUInt32ASCIIERm.exit.preheader:
  %.pre.i = load i64, ptr %2, align 8
  %3 = add i64 %.pre.i, 5
  br label %_ZNK5o3dgc12BinaryStream15ReadUInt32ASCIIERm.exit

_ZNK5o3dgc12BinaryStream15ReadUInt32ASCIIERm.exit: ; preds = %_ZNK5o3dgc12BinaryStream15ReadUInt32ASCIIERm.exit.preheader, %_ZNK5o3dgc12BinaryStream15ReadUInt32ASCIIERm.exit
  %4 = phi i64 [ %5, %_ZNK5o3dgc12BinaryStream15ReadUInt32ASCIIERm.exit ], [ %3, %_ZNK5o3dgc12BinaryStream15ReadUInt32ASCIIERm.exit.preheader ]
  %.011.i19 = phi i64 [ %14, %_ZNK5o3dgc12BinaryStream15ReadUInt32ASCIIERm.exit ], [ 0, %_ZNK5o3dgc12BinaryStream15ReadUInt32ASCIIERm.exit.preheader ]
  %.0710.i20 = phi i32 [ %13, %_ZNK5o3dgc12BinaryStream15ReadUInt32ASCIIERm.exit ], [ 0, %_ZNK5o3dgc12BinaryStream15ReadUInt32ASCIIERm.exit.preheader ]
  %.089.i21 = phi i64 [ %12, %_ZNK5o3dgc12BinaryStream15ReadUInt32ASCIIERm.exit ], [ 0, %_ZNK5o3dgc12BinaryStream15ReadUInt32ASCIIERm.exit.preheader ]
  %5 = add i64 %4, 1
  store i64 %5, ptr %2, align 8
  %6 = load ptr, ptr %1, align 8
  %7 = getelementptr inbounds nuw i8, ptr %6, i64 %4
  %8 = load i8, ptr %7, align 1
  %9 = zext i8 %8 to i32
  %10 = shl i32 %9, %.0710.i20
  %11 = sext i32 %10 to i64
  %12 = add i64 %.089.i21, %11
  %13 = add nuw nsw i32 %.0710.i20, 7
  %14 = add nuw nsw i64 %.011.i19, 1
  %exitcond.not.i22 = icmp eq i64 %14, 5
  br i1 %exitcond.not.i22, label %_ZNK5o3dgc12BinaryStream15ReadUInt32ASCIIERm.exit23, label %_ZNK5o3dgc12BinaryStream15ReadUInt32ASCIIERm.exit, !llvm.loop !21

_ZNK5o3dgc12BinaryStream15ReadUInt32ASCIIERm.exit23: ; preds = %_ZNK5o3dgc12BinaryStream15ReadUInt32ASCIIERm.exit
  %15 = mul i64 %12, 7
  %16 = getelementptr inbounds nuw i8, ptr %0, i64 8
  %17 = load i64, ptr %16, align 8
  %18 = icmp ugt i64 %15, %17
  br i1 %18, label %19, label %_ZN5o3dgc6VectorIlE8AllocateEm.exit

19:                                               ; preds = %_ZNK5o3dgc12BinaryStream15ReadUInt32ASCIIERm.exit23
  store i64 %15, ptr %16, align 8
  %20 = icmp ugt i64 %15, 2305843009213693951
  %21 = mul i64 %12, 56
  %22 = select i1 %20, i64 -1, i64 %21
  %23 = tail call noalias noundef nonnull ptr @_Znam(i64 noundef %22) #8
  %24 = getelementptr inbounds nuw i8, ptr %0, i64 16
  %25 = load i64, ptr %24, align 8
  %.not.i = icmp eq i64 %25, 0
  br i1 %.not.i, label %31, label %26

26:                                               ; preds = %19
  %27 = load ptr, ptr %0, align 8
  %28 = shl i64 %25, 3
  tail call void @llvm.memcpy.p0.p0.i64(ptr nonnull align 8 %23, ptr align 8 %27, i64 %28, i1 false)
  %29 = icmp eq ptr %27, null
  br i1 %29, label %31, label %30

30:                                               ; preds = %26
  tail call void @_ZdaPv(ptr noundef nonnull %27) #9
  br label %31

31:                                               ; preds = %30, %26, %19
  store ptr %23, ptr %0, align 8
  br label %_ZN5o3dgc6VectorIlE8AllocateEm.exit

_ZN5o3dgc6VectorIlE8AllocateEm.exit:              ; preds = %_ZNK5o3dgc12BinaryStream15ReadUInt32ASCIIERm.exit23, %31
  %32 = getelementptr inbounds nuw i8, ptr %0, i64 16
  store i64 0, ptr %32, align 8
  %.not = icmp eq i64 %12, 0
  br i1 %.not, label %._crit_edge, label %.lr.ph

.loopexit:                                        ; preds = %_ZN5o3dgc6VectorIlE8PushBackERKl.exit
  %33 = add i64 %.01631, 7
  %34 = icmp ult i64 %33, %12
  %indvars.iv.next = add i64 %indvars.iv, 7
  br i1 %34, label %.lr.ph, label %._crit_edge, !llvm.loop !25

._crit_edge:                                      ; preds = %.loopexit, %_ZN5o3dgc6VectorIlE8AllocateEm.exit
  ret i32 0

.lr.ph:                                           ; preds = %_ZN5o3dgc6VectorIlE8AllocateEm.exit, %.loopexit
  %indvars.iv = phi i64 [ %indvars.iv.next, %.loopexit ], [ 7, %_ZN5o3dgc6VectorIlE8AllocateEm.exit ]
  %.01631 = phi i64 [ %33, %.loopexit ], [ 0, %_ZN5o3dgc6VectorIlE8AllocateEm.exit ]
  %35 = load i64, ptr %2, align 8
  %36 = add i64 %35, 1
  store i64 %36, ptr %2, align 8
  %37 = load ptr, ptr %1, align 8
  %38 = getelementptr inbounds nuw i8, ptr %37, i64 %35
  %39 = load i8, ptr %38, align 1
  %40 = zext i8 %39 to i64
  br label %41

41:                                               ; preds = %.lr.ph, %_ZN5o3dgc6VectorIlE8PushBackERKl.exit
  %.129 = phi i64 [ %.01631, %.lr.ph ], [ %63, %_ZN5o3dgc6VectorIlE8PushBackERKl.exit ]
  %.01728 = phi i64 [ %40, %.lr.ph ], [ %62, %_ZN5o3dgc6VectorIlE8PushBackERKl.exit ]
  %42 = and i64 %.01728, 1
  %43 = load i64, ptr %32, align 8
  %44 = load i64, ptr %16, align 8
  %45 = icmp eq i64 %43, %44
  br i1 %45, label %46, label %._crit_edge.i

._crit_edge.i:                                    ; preds = %41
  %.pre.i24 = load ptr, ptr %0, align 8
  br label %_ZN5o3dgc6VectorIlE8PushBackERKl.exit

46:                                               ; preds = %41
  %47 = shl i64 %43, 1
  %spec.select.i = tail call i64 @llvm.umax.i64(i64 %47, i64 32)
  store i64 %spec.select.i, ptr %16, align 8
  %48 = icmp ugt i64 %47, 2305843009213693951
  %49 = shl i64 %spec.select.i, 3
  %50 = select i1 %48, i64 -1, i64 %49
  %51 = tail call noalias noundef nonnull ptr @_Znam(i64 noundef %50) #8
  %.not.i25 = icmp eq i64 %43, 0
  br i1 %.not.i25, label %57, label %52

52:                                               ; preds = %46
  %53 = load ptr, ptr %0, align 8
  %54 = shl i64 %43, 3
  tail call void @llvm.memcpy.p0.p0.i64(ptr nonnull align 8 %51, ptr align 8 %53, i64 %54, i1 false)
  %55 = icmp eq ptr %53, null
  br i1 %55, label %57, label %56

56:                                               ; preds = %52
  tail call void @_ZdaPv(ptr noundef nonnull %53) #9
  %.pre6.pre.i = load i64, ptr %32, align 8
  br label %57

57:                                               ; preds = %56, %52, %46
  %.pre6.i = phi i64 [ %43, %52 ], [ %.pre6.pre.i, %56 ], [ 0, %46 ]
  store ptr %51, ptr %0, align 8
  br label %_ZN5o3dgc6VectorIlE8PushBackERKl.exit

_ZN5o3dgc6VectorIlE8PushBackERKl.exit:            ; preds = %._crit_edge.i, %57
  %58 = phi i64 [ %43, %._crit_edge.i ], [ %.pre6.i, %57 ]
  %59 = phi ptr [ %.pre.i24, %._crit_edge.i ], [ %51, %57 ]
  %60 = add i64 %58, 1
  store i64 %60, ptr %32, align 8
  %61 = getelementptr inbounds nuw i64, ptr %59, i64 %58
  store i64 %42, ptr %61, align 8
  %62 = lshr i64 %.01728, 1
  %63 = add i64 %.129, 1
  %exitcond.not = icmp eq i64 %63, %indvars.iv
  br i1 %exitcond.not, label %.loopexit, label %41, !llvm.loop !26
}